target datalayout = "e-m:e-p270:32:32-p271:32:32-p272:64:64-i64:64-f80:128-n8:16:32:64-S128"
target triple = "x86_64-pc-linux-gnu"

@.str = private unnamed_addr constant [3 x i8] c"%d\00", align 1
@.str.1 = private unnamed_addr constant [3 x i8] c"%s\00", align 1
@.str.2 = private unnamed_addr constant [4 x i8] c"%d\0A\00", align 1
@.str.3 = private unnamed_addr constant [3 x i8] c"%c\00", align 1
@.str.4 = private unnamed_addr constant [2 x i8] c"\0A\00", align 1
@.str.5 = private unnamed_addr constant [3 x i8] c"NO\00", align 1

; Function Attrs: noinline nounwind uwtable
define dso_local void @main() #0 {
  %1 = alloca [500 x i8], align 16
  %2 = alloca i32, align 4
  %3 = alloca i32, align 4
  %4 = alloca i32, align 4
  %5 = alloca i32, align 4
  %6 = alloca i32, align 4
  %7 = alloca i32, align 4
  %8 = alloca i32, align 4
  %9 = alloca [500 x i32], align 16
  store i32 0, i32* %3, align 4
  %10 = call i32 (i8*, ...) @__isoc99_scanf(i8* getelementptr inbounds ([3 x i8], [3 x i8]* @.str, i64 0, i64 0), i32* %2)
  %11 = getelementptr inbounds [500 x i8], [500 x i8]* %1, i64 0, i64 0
  %12 = call i32 (i8*, ...) @__isoc99_scanf(i8* getelementptr inbounds ([3 x i8], [3 x i8]* @.str.1, i64 0, i64 0), i8* %11)
  %13 = getelementptr inbounds [500 x i8], [500 x i8]* %1, i64 0, i64 0
  %14 = call i64 @strlen(i8* %13) #3
  %15 = trunc i64 %14 to i32
  store i32 %15, i32* %7, align 4
  %16 = getelementptr inbounds [500 x i32], [500 x i32]* %9, i64 0, i64 0
  store i32 1, i32* %16, align 16
  store i32 1, i32* %4, align 4
  br label %17

17:                                               ; preds = %80, %0
  %18 = load i32, i32* %4, align 4
  %19 = load i32, i32* %7, align 4
  %20 = load i32, i32* %2, align 4
  %21 = sub nsw i32 %19, %20
  %22 = icmp sle i32 %18, %21
  br i1 %22, label %23, label %83

23:                                               ; preds = %17
  store i32 0, i32* %5, align 4
  br label %24

24:                                               ; preds = %68, %23
  %25 = load i32, i32* %5, align 4
  %26 = load i32, i32* %4, align 4
  %27 = icmp slt i32 %25, %26
  br i1 %27, label %28, label %71

28:                                               ; preds = %24
  store i32 0, i32* %6, align 4
  br label %29

29:                                               ; preds = %51, %28
  %30 = load i32, i32* %6, align 4
  %31 = load i32, i32* %2, align 4
  %32 = icmp slt i32 %30, %31
  br i1 %32, label %33, label %54

33:                                               ; preds = %29
  %34 = load i32, i32* %4, align 4
  %35 = load i32, i32* %6, align 4
  %36 = add nsw i32 %34, %35
  %37 = sext i32 %36 to i64
  %38 = getelementptr inbounds [500 x i8], [500 x i8]* %1, i64 0, i64 %37
  %39 = load i8, i8* %38, align 1
  %40 = sext i8 %39 to i32
  %41 = load i32, i32* %5, align 4
  %42 = load i32, i32* %6, align 4
  %43 = add nsw i32 %41, %42
  %44 = sext i32 %43 to i64
  %45 = getelementptr inbounds [500 x i8], [500 x i8]* %1, i64 0, i64 %44
  %46 = load i8, i8* %45, align 1
  %47 = sext i8 %46 to i32
  %48 = icmp ne i32 %40, %47
  br i1 %48, label %49, label %50

49:                                               ; preds = %33
  br label %54

50:                                               ; preds = %33
  br label %51

51:                                               ; preds = %50
  %52 = load i32, i32* %6, align 4
  %53 = add nsw i32 %52, 1
  store i32 %53, i32* %6, align 4
  br label %29

54:                                               ; preds = %49, %29
  %55 = load i32, i32* %6, align 4
  %56 = load i32, i32* %2, align 4
  %57 = icmp eq i32 %55, %56
  br i1 %57, label %58, label %67

58:                                               ; preds = %54
  %59 = load i32, i32* %5, align 4
  %60 = sext i32 %59 to i64
  %61 = getelementptr inbounds [500 x i32], [500 x i32]* %9, i64 0, i64 %60
  %62 = load i32, i32* %61, align 4
  %63 = add nsw i32 %62, 1
  store i32 %63, i32* %61, align 4
  %64 = load i32, i32* %4, align 4
  %65 = sext i32 %64 to i64
  %66 = getelementptr inbounds [500 x i32], [500 x i32]* %9, i64 0, i64 %65
  store i32 0, i32* %66, align 4
  br label %71

67:                                               ; preds = %54
  br label %68

68:                                               ; preds = %67
  %69 = load i32, i32* %5, align 4
  %70 = add nsw i32 %69, 1
  store i32 %70, i32* %5, align 4
  br label %24

71:                                               ; preds = %58, %24
  %72 = load i32, i32* %5, align 4
  %73 = load i32, i32* %4, align 4
  %74 = icmp eq i32 %72, %73
  br i1 %74, label %75, label %79

75:                                               ; preds = %71
  %76 = load i32, i32* %4, align 4
  %77 = sext i32 %76 to i64
  %78 = getelementptr inbounds [500 x i32], [500 x i32]* %9, i64 0, i64 %77
  store i32 1, i32* %78, align 4
  br label %79

79:                                               ; preds = %75, %71
  br label %80

80:                                               ; preds = %79
  %81 = load i32, i32* %4, align 4
  %82 = add nsw i32 %81, 1
  store i32 %82, i32* %4, align 4
  br label %17

83:                                               ; preds = %17
  store i32 0, i32* %4, align 4
  br label %84

84:                                               ; preds = %103, %83
  %85 = load i32, i32* %4, align 4
  %86 = load i32, i32* %7, align 4
  %87 = load i32, i32* %2, align 4
  %88 = sub nsw i32 %86, %87
  %89 = icmp sle i32 %85, %88
  br i1 %89, label %90, label %106

90:                                               ; preds = %84
  %91 = load i32, i32* %3, align 4
  %92 = load i32, i32* %4, align 4
  %93 = sext i32 %92 to i64
  %94 = getelementptr inbounds [500 x i32], [500 x i32]* %9, i64 0, i64 %93
  %95 = load i32, i32* %94, align 4
  %96 = icmp slt i32 %91, %95
  br i1 %96, label %97, label %102

97:                                               ; preds = %90
  %98 = load i32, i32* %4, align 4
  %99 = sext i32 %98 to i64
  %100 = getelementptr inbounds [500 x i32], [500 x i32]* %9, i64 0, i64 %99
  %101 = load i32, i32* %100, align 4
  store i32 %101, i32* %3, align 4
  br label %102

102:                                              ; preds = %97, %90
  br label %103

103:                                              ; preds = %102
  %104 = load i32, i32* %4, align 4
  %105 = add nsw i32 %104, 1
  store i32 %105, i32* %4, align 4
  br label %84

106:                                              ; preds = %84
  %107 = load i32, i32* %3, align 4
  %108 = icmp sgt i32 %107, 1
  br i1 %108, label %109, label %150

109:                                              ; preds = %106
  %110 = load i32, i32* %3, align 4
  %111 = call i32 (i8*, ...) @printf(i8* getelementptr inbounds ([4 x i8], [4 x i8]* @.str.2, i64 0, i64 0), i32 %110)
  store i32 0, i32* %4, align 4
  br label %112

112:                                              ; preds = %146, %109
  %113 = load i32, i32* %4, align 4
  %114 = load i32, i32* %7, align 4
  %115 = load i32, i32* %2, align 4
  %116 = sub nsw i32 %114, %115
  %117 = icmp sle i32 %113, %116
  br i1 %117, label %118, label %149

118:                                              ; preds = %112
  %119 = load i32, i32* %4, align 4
  %120 = sext i32 %119 to i64
  %121 = getelementptr inbounds [500 x i32], [500 x i32]* %9, i64 0, i64 %120
  %122 = load i32, i32* %121, align 4
  %123 = load i32, i32* %3, align 4
  %124 = icmp eq i32 %122, %123
  br i1 %124, label %125, label %145

125:                                              ; preds = %118
  %126 = load i32, i32* %4, align 4
  store i32 %126, i32* %5, align 4
  br label %127

127:                                              ; preds = %140, %125
  %128 = load i32, i32* %5, align 4
  %129 = load i32, i32* %4, align 4
  %130 = load i32, i32* %2, align 4
  %131 = add nsw i32 %129, %130
  %132 = icmp slt i32 %128, %131
  br i1 %132, label %133, label %143

133:                                              ; preds = %127
  %134 = load i32, i32* %5, align 4
  %135 = sext i32 %134 to i64
  %136 = getelementptr inbounds [500 x i8], [500 x i8]* %1, i64 0, i64 %135
  %137 = load i8, i8* %136, align 1
  %138 = sext i8 %137 to i32
  %139 = call i32 (i8*, ...) @printf(i8* getelementptr inbounds ([3 x i8], [3 x i8]* @.str.3, i64 0, i64 0), i32 %138)
  br label %140

140:                                              ; preds = %133
  %141 = load i32, i32* %5, align 4
  %142 = add nsw i32 %141, 1
  store i32 %142, i32* %5, align 4
  br label %127

143:                                              ; preds = %127
  %144 = call i32 (i8*, ...) @printf(i8* getelementptr inbounds ([2 x i8], [2 x i8]* @.str.4, i64 0, i64 0))
  br label %145

145:                                              ; preds = %143, %118
  br label %146

146:                                              ; preds = %145
  %147 = load i32, i32* %4, align 4
  %148 = add nsw i32 %147, 1
  store i32 %148, i32* %4, align 4
  br label %112

149:                                              ; preds = %112
  br label %152

150:                                              ; preds = %106
  %151 = call i32 (i8*, ...) @printf(i8* getelementptr inbounds ([3 x i8], [3 x i8]* @.str.5, i64 0, i64 0))
  br label %152

152:                                              ; preds = %150, %149
  %153 = call i32 (i8*, ...) @__isoc99_scanf(i8* getelementptr inbounds ([2 x i8], [2 x i8]* @.str.4, i64 0, i64 0))
  ret void
}